target datalayout = "e-m:e-p270:32:32-p271:32:32-p272:64:64-i64:64-i128:128-f80:128-n8:16:32:64-S128"
target triple = "x86_64-pc-linux-gnu"

%struct.dict = type { ptr, [2 x ptr], [2 x i64], i64, i16, [2 x i8], i16, [0 x ptr] }
%struct.dictExpireMetadata = type { %struct.ExpireMeta, ptr, ptr }
%struct.ExpireMeta = type { i32, i16, i16, ptr }
%struct.redisObject = type { i32, i32, ptr }
%struct.listpackEx = type { %struct.ExpireMeta, ptr, ptr }
%struct.ExpireCtx = type { i32, ptr }

@.str.2 = private unnamed_addr constant [9 x i8] c"t_hash.c\00", align 1
@.str.6 = private unnamed_addr constant [21 x i8] c"Unknown encoding: %d\00", align 1

; Function Attrs: inlinehint nounwind uwtable
define internal void @ebSetMetaExpTime(ptr noundef %0, i64 noundef %1) #7 {
  %3 = alloca ptr, align 8
  %4 = alloca i64, align 8
  store ptr %0, ptr %3, align 8, !tbaa !72
  store i64 %1, ptr %4, align 8, !tbaa !31
  %5 = load i64, ptr %4, align 8, !tbaa !31
  %6 = and i64 %5, 4294967295
  %7 = trunc i64 %6 to i32
  %8 = load ptr, ptr %3, align 8, !tbaa !72
  %9 = getelementptr inbounds nuw %struct.ExpireMeta, ptr %8, i32 0, i32 0
  store i32 %7, ptr %9, align 8, !tbaa !147
  %10 = load i64, ptr %4, align 8, !tbaa !31
  %11 = lshr i64 %10, 32
  %12 = trunc i64 %11 to i16
  %13 = load ptr, ptr %3, align 8, !tbaa !72
  %14 = getelementptr inbounds nuw %struct.ExpireMeta, ptr %13, i32 0, i32 1
  store i16 %12, ptr %14, align 4, !tbaa !146
  ret void
}

; Function Attrs: nounwind uwtable
define internal ptr @hashGetExpireMeta(ptr noundef %0) #1 {
  %2 = alloca ptr, align 8
  %3 = alloca ptr, align 8
  %4 = alloca ptr, align 8
  %5 = alloca ptr, align 8
  %6 = alloca i32, align 4
  %7 = alloca ptr, align 8
  %8 = alloca ptr, align 8
  store ptr %0, ptr %3, align 8, !tbaa !10
  call void @llvm.lifetime.start.p0(i64 8, ptr %4) #12
  %9 = load ptr, ptr %3, align 8, !tbaa !10
  store ptr %9, ptr %4, align 8, !tbaa !15
  %10 = load ptr, ptr %4, align 8, !tbaa !15
  %11 = load i32, ptr %10, align 8
  %12 = lshr i32 %11, 4
  %13 = and i32 %12, 15
  %14 = icmp eq i32 %13, 12
  br i1 %14, label %15, label %21

15:                                               ; preds = %1
  call void @llvm.lifetime.start.p0(i64 8, ptr %5) #12
  %16 = load ptr, ptr %4, align 8, !tbaa !15
  %17 = getelementptr inbounds nuw %struct.redisObject, ptr %16, i32 0, i32 2
  %18 = load ptr, ptr %17, align 8, !tbaa !17
  store ptr %18, ptr %5, align 8, !tbaa !19
  %19 = load ptr, ptr %5, align 8, !tbaa !19
  %20 = getelementptr inbounds nuw %struct.listpackEx, ptr %19, i32 0, i32 0
  store ptr %20, ptr %2, align 8
  store i32 1, ptr %6, align 4
  call void @llvm.lifetime.end.p0(i64 8, ptr %5) #12
  br label %40

21:                                               ; preds = %1
  %22 = load ptr, ptr %4, align 8, !tbaa !15
  %23 = load i32, ptr %22, align 8
  %24 = lshr i32 %23, 4
  %25 = and i32 %24, 15
  %26 = icmp eq i32 %25, 2
  br i1 %26, label %27, label %35

27:                                               ; preds = %21
  call void @llvm.lifetime.start.p0(i64 8, ptr %7) #12
  %28 = load ptr, ptr %4, align 8, !tbaa !15
  %29 = getelementptr inbounds nuw %struct.redisObject, ptr %28, i32 0, i32 2
  %30 = load ptr, ptr %29, align 8, !tbaa !17
  store ptr %30, ptr %7, align 8, !tbaa !5
  call void @llvm.lifetime.start.p0(i64 8, ptr %8) #12
  %31 = load ptr, ptr %7, align 8, !tbaa !5
  %32 = getelementptr inbounds nuw %struct.dict, ptr %31, i32 0, i32 7
  store ptr %32, ptr %8, align 8, !tbaa !11
  %33 = load ptr, ptr %8, align 8, !tbaa !11
  %34 = getelementptr inbounds nuw %struct.dictExpireMetadata, ptr %33, i32 0, i32 0
  store ptr %34, ptr %2, align 8
  store i32 1, ptr %6, align 4
  call void @llvm.lifetime.end.p0(i64 8, ptr %8) #12
  call void @llvm.lifetime.end.p0(i64 8, ptr %7) #12
  br label %40

35:                                               ; preds = %21
  %36 = load ptr, ptr %4, align 8, !tbaa !15
  %37 = load i32, ptr %36, align 8
  %38 = lshr i32 %37, 4
  %39 = and i32 %38, 15
  call void (ptr, i32, ptr, ...) @_serverPanic(ptr noundef @.str.2, i32 noundef 3540, ptr noundef @.str.6, i32 noundef %39)
  call void @abort() #14
  unreachable

40:                                               ; preds = %27, %15
  call void @llvm.lifetime.end.p0(i64 8, ptr %4) #12
  %41 = load ptr, ptr %2, align 8
  ret ptr %41
}

; Function Attrs: nounwind uwtable
define internal i32 @hashTypeActiveExpire(ptr noundef %0, ptr noundef %1) #1 {
  %3 = alloca i32, align 4
  %4 = alloca ptr, align 8
  %5 = alloca ptr, align 8
  %6 = alloca ptr, align 8
  %7 = alloca i32, align 4
  %8 = alloca i64, align 8
  store ptr %0, ptr %4, align 8, !tbaa !10
  store ptr %1, ptr %5, align 8, !tbaa !10
  call void @llvm.lifetime.start.p0(i64 8, ptr %6) #12
  %9 = load ptr, ptr %5, align 8, !tbaa !10
  store ptr %9, ptr %6, align 8, !tbaa !153
  %10 = load ptr, ptr %6, align 8, !tbaa !153
  %11 = getelementptr inbounds nuw %struct.ExpireCtx, ptr %10, i32 0, i32 0
  %12 = load i32, ptr %11, align 8, !tbaa !148
  %13 = icmp eq i32 %12, 0
  br i1 %13, label %14, label %15

14:                                               ; preds = %2
  store i32 2, ptr %3, align 4
  store i32 1, ptr %7, align 4
  br label %30

15:                                               ; preds = %2
  call void @llvm.lifetime.start.p0(i64 8, ptr %8) #12
  %16 = load ptr, ptr %4, align 8, !tbaa !10
  %17 = load ptr, ptr %6, align 8, !tbaa !153
  %18 = call i64 @hashTypeExpire(ptr noundef %16, ptr noundef %17, i32 noundef 0)
  store i64 %18, ptr %8, align 8, !tbaa !31
  %19 = load i64, ptr %8, align 8, !tbaa !31
  %20 = icmp eq i64 %19, 281474976710656
  br i1 %20, label %24, label %21

21:                                               ; preds = %15
  %22 = load i64, ptr %8, align 8, !tbaa !31
  %23 = icmp eq i64 %22, 0
  br i1 %23, label %24, label %25

24:                                               ; preds = %21, %15
  store i32 0, ptr %3, align 4
  store i32 1, ptr %7, align 4
  br label %29

25:                                               ; preds = %21
  %26 = load ptr, ptr %4, align 8, !tbaa !10
  %27 = call ptr @hashGetExpireMeta(ptr noundef %26)
  %28 = load i64, ptr %8, align 8, !tbaa !31
  call void @ebSetMetaExpTime(ptr noundef %27, i64 noundef %28)
  store i32 1, ptr %3, align 4
  store i32 1, ptr %7, align 4
  br label %29

29:                                               ; preds = %25, %24
  call void @llvm.lifetime.end.p0(i64 8, ptr %8) #12
  br label %30

30:                                               ; preds = %29, %14
  call void @llvm.lifetime.end.p0(i64 8, ptr %6) #12
  %31 = load i32, ptr %3, align 4
  ret i32 %31
}