; Function Attrs: nounwind uwtable
define internal range(i32 0, 3) i32 @hashTypeActiveExpire(ptr noundef %0, ptr noundef captures(none) %1) #1 {
  %3 = load i32, ptr %1, align 8, !tbaa !127
  %4 = icmp eq i32 %3, 0
  br i1 %4, label %24, label %5

5:                                                ; preds = %2
  %6 = tail call fastcc i64 @hashTypeExpire(ptr noundef %0, ptr noundef nonnull %1, i32 noundef 0)
  %7 = and i64 %6, -281474976710657
  %or.cond = icmp eq i64 %7, 0
  br i1 %or.cond, label %24, label %8

8:                                                ; preds = %5
  %9 = load i32, ptr %0, align 8
  %10 = lshr i32 %9, 4
  %11 = and i32 %10, 15
  switch i32 %11, label %19 [
    i32 12, label %12
    i32 2, label %15
  ]

12:                                               ; preds = %8
  %13 = getelementptr inbounds nuw i8, ptr %0, i64 8
  %14 = load ptr, ptr %13, align 8, !tbaa !10
  br label %hashGetExpireMeta.exit

15:                                               ; preds = %8
  %16 = getelementptr inbounds nuw i8, ptr %0, i64 8
  %17 = load ptr, ptr %16, align 8, !tbaa !10
  %18 = getelementptr inbounds nuw i8, ptr %17, i64 56
  br label %hashGetExpireMeta.exit

19:                                               ; preds = %8
  tail call void (ptr, i32, ptr, ...) @_serverPanic(ptr noundef nonnull @.str.2, i32 noundef 3540, ptr noundef nonnull @.str.6, i32 noundef %11) #16
  tail call void @abort() #17
  unreachable

hashGetExpireMeta.exit:                           ; preds = %12, %15
  %.0.i = phi ptr [ %14, %12 ], [ %18, %15 ]
  %20 = trunc i64 %6 to i32
  store i32 %20, ptr %.0.i, align 8, !tbaa !69
  %21 = lshr i64 %6, 32
  %22 = trunc i64 %21 to i16
  %23 = getelementptr inbounds nuw i8, ptr %.0.i, i64 4
  store i16 %22, ptr %23, align 4, !tbaa !70
  br label %24

24:                                               ; preds = %hashGetExpireMeta.exit, %5, %2
  %.0 = phi i32 [ 2, %2 ], [ 1, %hashGetExpireMeta.exit ], [ 0, %5 ]
  ret i32 %.0
}